(dp0
Vturtle
p1
ccopy_reg
_reconstructor
p2
(cobjects.Feature
Feature
p3
c__builtin__
object
p4
Ntp5
Rp6
(dp7
S'verb_use'
p8
(lp9
Vuse
p10
aVfeed
p11
asS'alternate_names'
p12
(lp13
sS'short_description'
p14
VTiziano, the turtle
p15
sS'canUnlock'
p16
I00
sS'otherObjects'
p17
g0
sS'seen'
p18
I00
sS'long_description'
p19
VThis is the captain's favorite turtle, Tiziano.  You see a security chip attached to the inside of his shell.  But the turtle is hungry so you can't get to it without it snapping at you.
p20
sS'name'
p21
g1
sVresult_text
p22
VYou feed the turtle, and it is no longer hungry, you take the security chip from inside his shell.  Now you can open the safe in the Captain's Quarters!
p23
sS'item_use'
p24
Vlettuce
p25
sS'description_change'
p26
VThis is the captain's favorite turtle, Tiziano. He is no longer hungry
p27
sS'location'
p28
Varboretum
p29
sS'result_item'
p30
Vsecurity chip
p31
sS'canUnhide'
p32
I00
sS'type'
p33
Vfeature
p34
sbsVairlock control
p35
g2
(g3
g4
Ntp36
Rp37
(dp38
g8
(lp39
Vuse
p40
asg12
(lp41
sg14
Vairlock control
p42
sg16
I00
sg17
g0
sg18
I00
sg19
VThis is the airlock control to main engineering.  Due to a hull breach, main engineering lost all atmosphere, and thus the engineering access tube must undergo decompression before the door will open.  Thus you must have a working VacSuit, and use it on the controls to continue
p43
sg21
g35
sVresult_text
p44
VYou put on your VacSuit, and use the controls to depressurize the engineering access tube, after depressurization completes you open the door and proceed into main engineering.
p45
sg24
(lp46
Vrestored vacsuit
p47
asg26
VThis is the airlock control to main engineering.  The airlock door is unlocked
p48
sg28
Vengineering access tube
p49
sg30
Nsg32
I00
sg33
Vfeature
p50
sbsVkeyhole2
p51
g2
(g3
g4
Ntp52
Rp53
(dp54
g8
(lp55
Vuse
p56
asg12
(lp57
sg14
VKeyhole2.
p58
sg16
I00
sg17
g0
sg18
I00
sg19
VThis is a keyhole2 that might work with a certain elevatorkey?
p59
sg21
g51
sVresult_text
p60
VYou have successfully unlocked the next level on this elevator!
p61
sg24
(lp62
Velevatorkey2
p63
asg26
VKeyhole2 has been unlocked!
p64
sg28
Velevator level 2
p65
sg30
Nsg32
I00
sg33
Vfeature
p66
sbsVmess hall
p67
g2
(cobjects.Room
Room
p68
g4
Ntp69
Rp70
(dp71
g21
g67
sS'locked_directions'
p72
(lp73
sS'items'
p74
(lp75
Vlettuce
p76
aVelevatorkey2
p77
asg12
(lp78
sS'adjacent_rooms'
p79
(dp80
Vwest
p81
Vcrew quarters
p82
sVeast
p83
Varboretum
p84
ssg17
g0
sg14
S"You come back to the grim Mess Hall. It's still shocking what you saw here last (or did you?): the Dying Man, the ElevatorKey2, the Leftovers, and the Lettuce...\n\nThis room is so crazy...if you want out, to the East is an Arboretum and to the West is the Crew Quarters."
p85
sS'visited'
p86
I00
sg33
Vroom
p87
sg19
S"You dash to the Mess Hall while contemplating why you're stuck here. You're shocked by what you notice first: a Dying Man who appears to be distressed. Right beside him is an ElevatorKey2. \n\nYou hate to admit, but you also start thinking about food. You see that there's Leftovers on the stove. There's also some Lettuce right by it.\n\nIn case you're wondering, to the East is an Arboretum and to the West is the Crew Quarters."
p88
sS'features'
p89
(lp90
Vleftovers
p91
aVdying man
p92
asbsVsecurity chip
p93
g2
(cobjects.Item
Item
p94
g4
Ntp95
Rp96
(dp97
S'hidden'
p98
Vtrue
p99
sg21
g93
sg12
(lp100
sg16
I00
sg28
Varboretum
p101
sg17
g0
sg14
VThis is a security chip.
p102
sg18
I00
sg32
I00
sg33
Vitem
p103
sg19
VThis is a security chip that allows you to unlock the safe in the Captain's Cabin.
p104
sbsVbridge
p105
g2
(g68
g4
Ntp106
Rp107
(dp108
g21
g105
sg72
(lp109
sg74
(lp110
Vbronze medallion
p111
aVelevatorkey1
p112
asg12
(lp113
sg79
(dp114
Vsouth
p115
Velevator level 1
p116
ssg17
g0
sg14
S'This is where you started. Did you pick up the Bronze Medallion? \n\nTo the South is Elevator Level 1.'
p117
sg86
I01
sg33
Vroom
p118
sg19
S"You are in a room which appears to be the bridge of a starship. No one else is present. Large video screens cover the walls and show a spectacular view of a two suns and several planets.  There's also a Window that you might want to look through and there's a Notepad by your feet. \n\nThere are numerous consoles with various controls and an empty chair in front of each. In front of you on your desk to notice an ElevatorKey1. Maybe you can try picking it up? There's also an unusual Bronze Medallion.\n\nTo the South there appears to be an Elevator Level 1."
p119
sg89
(lp120
Vwindow
p121
aVnotepad
p122
asbsValien notes
p123
g2
(g3
g4
Ntp124
Rp125
(dp126
g26
S''
p127
sg21
g123
sg24
(lp128
sg8
(lp129
sg12
(lp130
sg30
Nsg16
I00
sg28
Vmedical bay
p131
sg17
g0
sg14
VUseless alien notes...
p132
sg18
I00
sg32
I00
sg33
Vfeature
p133
sg19
VYou look at the alien notes and realize you cannot read alien.
p134
sbsVelevator level 2
p135
g2
(g68
g4
Ntp136
Rp137
(dp138
g21
g135
sg72
(lp139
Vdown
p140
asg74
(lp141
sg12
(lp142
sg79
(dp143
Vdown
p144
Velevator level 3
p145
sVeast
p146
Vcrew quarters
p147
sVup
p148
Velevator level 1
p149
ssg17
g0
sg14
S'You sashay back into Elevator Level 2. Did you get what you need?  \n\nYou remember you can go Up to Elevator Level 1, East to the Crew Quarters, or try going Down to Elevator Level 3.'
p150
sg86
I00
sg33
Vroom
p151
sg19
S"Congratulations on gaining access to level 2 of the bridge elevator. As the elevator creeps down, the display slowly switches to 'level 2'. Also, the control panel now has a Keyhole2 and a Directory2. \n\nYou can go Up back to Elevator Level 1 or you can try going East to the Crew Quarters. Finally, you notice that the control panel notes that going Down leads you to Elevator level 3."
p152
sg89
(lp153
g51
aVdirectory2
p154
asbsVelevator level 3
p155
g2
(g68
g4
Ntp156
Rp157
(dp158
g21
g155
sg72
(lp159
sg74
(lp160
sg12
(lp161
sg79
(dp162
Vup
p163
Velevator level 2
p164
sVsouth
p165
Vshuttle bay
p166
ssg17
g0
sg14
S'You come back to the Elevator Level 3. Did you forget to get something on the other floors?\n\nWhen you look around, you see the Up button to go to Elevator Level 2. Or you can go back South to the Shuttle Bay.'
p167
sg86
I00
sg33
Vroom
p168
sg19
S"The elevator plummets to Elevator Level 3! You really felt vertigo as you got here. The control panel flashes and notes that you're on 'level 3'. On this level of the elevator, you notice a Directory3 and a Speaker. When you look out of the elevator door, everything seems so dim. \n\nYou can go Up back to Elevator Level 2. Also, when you look South a light glimmers in the Shuttle Bay."
p169
sg89
(lp170
Vspeaker
p171
aVdirectory3
p172
asbsVentertainment terminal
p173
g2
(g3
g4
Ntp174
Rp175
(dp176
g8
(lp177
Vunscrew
p178
aVuse
p179
asg12
(lp180
sg14
VEntertainment terminal
p181
sg16
I00
sg17
g0
sg18
I00
sg19
VThis is an entertainment terminal, if it had power, it would allow you to play games, watch videos, browse the extranet, and many other entertainment functions.  You notice that the monitor is undamaged and it is attached by several screws
p182
sg21
g173
sVresult_text
p183
VYou use the multitool to unscrew the screws holding the monitor.  You then pick up the monitor.
p184
sg24
Vmultitool
p185
sg26
VThis entertainment terminal has had its monitor removed, it is no longer useful
p186
sg28
Vforward observation
p187
sg30
Vmonitor
p188
sg32
I00
sg33
Vfeature
p189
sbsg76
g2
(g94
g4
Ntp190
Rp191
(dp192
g98
I00
sg21
g76
sg12
(lp193
sg16
I00
sg28
Vmess hall
p194
sg17
g0
sg14
VThis is lettuce.
p195
sg18
I00
sg32
I00
sg33
Vitem
p196
sg19
VThis is a part of a head of Lettuce. You are not sure how it has stayed so well preserved. Do you think you want to take it with you?
p197
sbsVarboretum
p198
g2
(g68
g4
Ntp199
Rp200
(dp201
g21
g198
sg72
(lp202
sg74
(lp203
g93
asg12
(lp204
sg79
(dp205
Vwest
p206
Vmess hall
p207
ssg17
g0
sg14
VArboretum\u000aWest:Mess Hall
p208
sg86
I00
sg33
Vroom
p209
sg19
S'You are in the Arboretum.  This location houses all non-sentient organic life on the ship. \n\nThere are various plants and animals present, but the recent ship malfunctions have caused many of the plants to die and the animals are slowly starving as well. \n\nYou notice a Turtle and dying Crops. \n\nTo the West is the Mess Hall.'
p210
sg89
(lp211
g1
aVcrops
p212
asbsVcrew quarters
p213
g2
(g68
g4
Ntp214
Rp215
(dp216
g21
g213
sg72
(lp217
sg74
(lp218
Vmultitool
p219
asg12
(lp220
sg79
(dp221
Vwest
p222
Velevator level 2
p223
sVeast
p224
Vmess hall
p225
sVnorth
p226
Vcaptain's cabin
p227
sVsouth
p228
Vmedical bay
p229
ssg17
g0
sg14
S"As you enter the Crew Quarters again, you remember that this room leads to the Captain's Cabin (North), Mess Hall (East), Medical Bay (South), and Elevator Level 2 (West). Where will you go? What will you do?"
p230
sg86
I00
sg33
Vroom
p231
sg19
S'You walk slowly through the Crew Quarters. There\'s no one here unfortunately. There are also no windows. You notice a sign that says, "GET THE MEDALLIONS!" Do you think you should follow it? \n\nAs you look around, you notice a Diary by someone\'s bunkbed. There\'s a fresh pair of Pajamas on the ground. \n\nA shiver goes up your spine, and you look around for ways to get out of here. To the North there\'s a Captain\'s Cabin. From the East, you smell food in the Mess Hall. You hear a strange sound coming from the South--that\'s the Medical Bay (and goodies). You can also go West to the Elevator Level 2.'
p232
sg89
(lp233
Vpajamas
p234
aVdiary
p235
asbsVtable of notes
p236
g2
(g3
g4
Ntp237
Rp238
(dp239
g26
g127
sg21
g236
sg24
(lp240
sg8
(lp241
sg12
(lp242
sg30
Nsg16
I00
sg28
Vforward observation
p243
sg17
g0
sg14
VThose notes in another language...man, that is weird.
p244
sg18
I00
sg32
I00
sg33
Vfeature
p245
sg19
VWhen you look at the table of notes, you realize that it's in a different language. How did these get here?
p246
sbsVbow
p247
g2
(g3
g4
Ntp248
Rp249
(dp250
g26
g127
sg21
g247
sg24
(lp251
sg8
(lp252
sg12
(lp253
sg30
Nsg16
I00
sg28
Varmory
p254
sg17
g0
sg14
VThis game is not TUROK.
p255
sg18
I00
sg32
I00
sg33
Vfeature
p256
sg19
VYou check out the bow and think of videogame you used to play...TUROK
p257
sbsg234
g2
(g3
g4
Ntp258
Rp259
(dp260
g26
g127
sg21
g234
sg24
(lp261
sg8
(lp262
sg12
(lp263
sg30
Nsg16
I00
sg28
Vcrew quarters
p264
sg17
g0
sg14
VYou wish the pajamas fit you.
p265
sg18
I00
sg32
I00
sg33
Vfeature
p266
sg19
VYou try on the pajamas, but they do not fit. They are really soft.
p267
sbsVdying alien
p268
g2
(g3
g4
Ntp269
Rp270
(dp271
g26
g127
sg21
g268
sg24
(lp272
sg8
(lp273
sg12
(lp274
sg30
Nsg16
I00
sg28
Vmedical bay
p275
sg17
g0
sg14
VThe alien is dead.
p276
sg18
I00
sg32
I00
sg33
Vfeature
p277
sg19
VWhen you approach the dying alien, it looks at you and points at the android.
p278
sbsVmedical bay
p279
g2
(g68
g4
Ntp280
Rp281
(dp282
g21
g279
sg72
(lp283
sg74
(lp284
Vandroid
p285
aVrestored vacsuit
p286
asg12
(lp287
sg79
(dp288
Vwest
p289
Vforward observation
p290
sVnorth
p291
Vcrew quarters
p292
ssg17
g0
sg14
S'Will the rooms get any weirder than this one? Remember, there was a Dying Alien, Alien Notes, and an Android here...\n\nTo go to the Medical Bay, you have to go North. And to go to the Forward Observation Lounge, you have to go West.'
p293
sg86
I00
sg33
Vroom
p294
sg19
S'You are in the Medical Bay. This area has all of the ship\'s medical apparatus and supplies. None of that stuff seems used. You yell, "WHAT HAPPENED HERE?" And a strange Dying Alien telepathically tells you, "Figure it out." Right beside him are Alien Notes.\n\nAfter you make your decision on what to do, you remember you can go back to the Crew Quarters in the North or forge West to the Forward Observation Lounge.'
p295
sg89
(lp296
g123
ag268
aVoxygen tank
p297
asbsVtelescope
p298
g2
(g3
g4
Ntp299
Rp300
(dp301
g26
g127
sg21
g298
sg24
(lp302
sg8
(lp303
sg12
(lp304
sg30
Nsg16
I00
sg28
Vforward observation
p305
sg17
g0
sg14
VWho used that telescope?
p306
sg18
I00
sg32
I00
sg33
Vfeature
p307
sg19
VThis telescope seems like it has been used.
p308
sbsg154
g2
(g3
g4
Ntp309
Rp310
(dp311
g26
g127
sg21
g154
sg24
(lp312
sg8
(lp313
sg12
(lp314
sg30
Nsg16
I00
sg28
Velevator level 2
p315
sg17
g0
sg14
S'\tElevator 1 - Bridge \n\tElevator 2 - Crew Quarters \n\tElevator 3 - Shuttle Bay'
p316
sg18
I00
sg32
I00
sg33
Vfeature
p317
sg19
S'You look at the directory and it says: \n\tElevator 1 - Bridge \n\tElevator 2 - Crew Quarters \n\tElevator 3 - Shuttle Bay'
p318
sbsg219
g2
(g94
g4
Ntp319
Rp320
(dp321
g98
I00
sg21
g219
sg12
(lp322
sg16
I00
sg28
Vcrew quarters
p323
sg17
g0
sg14
VMultitool
p324
sg18
I00
sg32
I00
sg33
Vitem
p325
sg19
VThis is a multitool, it has many different screwdriver and wrench sizes among other useful tools.  It can be used for simple jobs involving screws or bolts
p326
sbsVauxiliary bridge
p327
g2
(g68
g4
Ntp328
Rp329
(dp330
g21
g327
sg72
(lp331
sg74
(lp332
sg12
(lp333
sg79
(dp334
Veast
p335
Vmain engineering
p336
ssg17
g0
sg14
S"Welcome back to the Auxiliary Bridge. Did you need to find inspiration again? Well, YOU'RE ALMOST THERE!\n\nTo go back, Main Engineering is in the East."
p337
sg86
I00
sg33
Vroom
p338
sg19
S"When you enter the Auxiliary Bridge, you reflect on the the Bridge you were at before. Why would there need to be an Auxiliary one? You look around you, and notice that there is Superhint on the wall. There's also Wiring hanging from the ceiling.\n\nPlayer, you're almost there. When you're ready to move on, to the East is the Main Engineering."
p339
sg89
(lp340
Vwiring
p341
aVsuperhint
p342
asbsVmonitor
p343
g2
(g94
g4
Ntp344
Rp345
(dp346
g98
Vtrue
p347
sg21
g343
sg12
(lp348
sg16
I00
sg28
Vforward observation
p349
sg17
g0
sg14
VMonitor.
p350
sg18
I00
sg32
I00
sg33
Vitem
p351
sg19
VThis is a undamaged monitor that can be attached to another terminal.
p352
sbsVdirectory1
p353
g2
(g3
g4
Ntp354
Rp355
(dp356
g26
g127
sg21
g353
sg24
(lp357
sg8
(lp358
sg12
(lp359
sg30
Nsg16
I00
sg28
Velevator level 1
p360
sg17
g0
sg14
S'\tElevator 1 - Bridge \n\tElevator 2 - Crew Quarters \n\tElevator 3 - Shuttle Bay'
p361
sg18
I00
sg32
I00
sg33
Vfeature
p362
sg19
S'You look at the directory and it says: \n\tElevator 1 - Bridge \n\tElevator 2 - Crew Quarters \n\tElevator 3 - Shuttle Bay'
p363
sbsVengineering access tube
p364
g2
(g68
g4
Ntp365
Rp366
(dp367
g21
g364
sg72
(lp368
Vsouth
p369
asg74
(lp370
sg12
(lp371
sg79
(dp372
Vnorth
p373
Vshuttle bay
p374
sVsouth
p375
Vmain engineering
p376
ssg17
g0
sg14
Vengineering access tube
p377
sg86
I00
sg33
Vroom
p378
sg19
S'Your are in the Engineering Access Tube.  You see the airlock controls that control the entry to main engineering.  \n\nTo the North is the Shuttle Bay and to the South is Main Engineering.'
p379
sg89
(lp380
g35
asbsg111
g2
(g94
g4
Ntp381
Rp382
(dp383
g98
I00
sg21
g111
sg12
(lp384
sg16
I00
sg28
Vbridge
p385
sg17
g0
sg14
VBronze medallion.
p386
sg18
I00
sg32
I00
sg33
Vitem
p387
sg19
VThis is a bronze medallion.  It has the inscription: 'haec vincere debes'.  Maybe you should pick it up?
p388
sbsg341
g2
(g3
g4
Ntp389
Rp390
(dp391
g26
g127
sg21
g341
sg24
(lp392
sg8
(lp393
sg12
(lp394
sg30
Nsg16
I00
sg28
Vauxiliary bridge
p395
sg17
g0
sg14
VUseless Wiring...
p396
sg18
I00
sg32
I00
sg33
Vfeature
p397
sg19
VThe Wiring seems dead. Is this why the ship does not work?
p398
sbsg121
g2
(g3
g4
Ntp399
Rp400
(dp401
g26
g127
sg21
g121
sg24
(lp402
sg8
(lp403
sg12
(lp404
sg30
Nsg16
I00
sg28
Vbridge
p405
sg17
g0
sg14
VYou've checked this window out before...
p406
sg18
I00
sg32
I00
sg33
Vfeature
p407
sg19
VYou look at the window and see stars and a big void.
p408
sbsVversion
p409
g2
(cobjects.Version
Version
p410
g4
Ntp411
Rp412
(dp413
g21
g409
sg12
(lp414
sS'version'
p415
F1.2
sg17
g0
sg14
Vversion
p416
sg33
Vversion
p417
sg19
Vversion
p418
sbsg171
g2
(g3
g4
Ntp419
Rp420
(dp421
g26
g127
sg21
g171
sg24
(lp422
sg8
(lp423
sg12
(lp424
sg30
Nsg16
I00
sg28
Velevator level 3
p425
sg17
g0
sg14
VNo noise comes out of the Speaker.
p426
sg18
I00
sg32
I00
sg33
Vfeature
p427
sg19
VThe Speaker says GET OUT!
p428
sbsVauxiliary codes
p429
g2
(g94
g4
Ntp430
Rp431
(dp432
g98
Vtrue
p433
sg21
g429
sg12
(lp434
sg16
I00
sg28
Vcaptain's cabin
p435
sg17
g0
sg14
Vauxiliary codes
p436
sg18
I00
sg32
I00
sg33
Vitem
p437
sg19
VThese are codes that will transfer command of the ship to the auxiliary bridge, you need to enter them in the auxiliary bridge.
p438
sbsVblaster pistol
p439
g2
(g94
g4
Ntp440
Rp441
(dp442
g98
I00
sg21
g439
sg12
(lp443
sg16
I00
sg28
Varmory
p444
sg17
g0
sg14
VThis is a blaster pistol.
p445
sg18
I00
sg32
I00
sg33
Vitem
p446
sg19
VWhat you have here is a blaster pistol. It is at full energy, so maybe you can use it somewhere.
p447
sbsVelevator level 1
p448
g2
(g68
g4
Ntp449
Rp450
(dp451
g21
g448
sg72
(lp452
Vdown
p453
asg74
(lp454
sg12
(lp455
sg79
(dp456
Vdown
p457
Velevator level 2
p458
sVnorth
p459
Vbridge
p460
ssg17
g0
sg14
S"You return to the level 1 of the bridge elevator. Hopefully, you've figured out how to get down to the other levels.\n\nWhen you look North, you see the Bridge. You also notice that you might be able to go Down to Elevator Level 2."
p461
sg86
I01
sg33
Vroom
p462
sg19
S"You are in the bridge elevator. The display says 'level 1'. It doesn't seem like it has been used in a long time. You notice that there's a Keyhole1 and a Directory1 near the elevator control panel. \n\nWhen you look North, you see the Bridge. You also notice that you might be able to go Down to Elevator Level 2."
p463
sg89
(lp464
g353
aVkeyhole1
p465
asbsVarmory
p466
g2
(g68
g4
Ntp467
Rp468
(dp469
g21
g466
sg72
(lp470
sg74
(lp471
g439
asg12
(lp472
sg79
(dp473
Vwest
p474
Vshuttle bay
p475
sVeast
p476
Vcargo deck
p477
ssg17
g0
sg14
VArmory\u000aEast:Cargo Deck\u000aWest:Shuttle Bay
p478
sg86
I00
sg33
Vroom
p479
sg19
VThis is the Armory. There don't seem be a lot of weapons left! \u000aTo the East is the Cargo Deck. \u000aTo the West there's the Shuttle Bay.
p480
sg89
(lp481
g247
aVpistol instructions
p482
asbsg285
g2
(g94
g4
Ntp483
Rp484
(dp485
g98
I00
sg21
g285
sg12
(lp486
sg16
I00
sg28
Vmedical bay
p487
sg17
g0
sg14
VThis is small Android from the Medical Bay.
p488
sg18
I00
sg32
I00
sg33
Vitem
p489
sg19
VThis a really small Android. It doesn't seem like it's working, but it seems like it worked just awhile ago. It reminds you of a person named Lyanna.
p490
sbsVcomic
p491
g2
(g3
g4
Ntp492
Rp493
(dp494
g26
g127
sg21
g491
sg24
(lp495
sg8
(lp496
sg12
(lp497
sg30
Nsg16
I00
sg28
Vtransporter room
p498
sg17
g0
sg14
VThe jokes in the Comic are not funny anymore.
p499
sg18
I00
sg32
I00
sg33
Vfeature
p500
sg19
VYou read the Comic, and it gives you a hearty laugh. It was from the New York Post. What a great newspaper that was...
p501
sbsVgold medallion
p502
g2
(g94
g4
Ntp503
Rp504
(dp505
g98
I00
sg21
g502
sg12
(lp506
sg16
I00
sg28
Vcargo deck
p507
sg17
g0
sg14
VGold medallion.
p508
sg18
I00
sg32
I00
sg33
Vitem
p509
sg19
VThis is a gold medallion.  It has the inscription: 'haec vincere debes'
p510
sbsVdepleted vacsuit
p511
g2
(g94
g4
Ntp512
Rp513
(dp514
g98
I00
sg21
g511
sg12
(lp515
sg16
I00
sg28
Vshuttle bay
p516
sg17
g0
sg14
Vdepleted vacsuit
p517
sg18
I00
sg32
I00
sg33
Vitem
p518
sg19
VThis is a VacSuit that can protect you from the harsh environment of space.  It is fully intact with a full battery, but the oxygen supply has been depleted
p519
sbsVsafe
p520
g2
(g3
g4
Ntp521
Rp522
(dp523
g8
(lp524
Vuse
p525
aVopen
p526
aVunlock
p527
asg12
(lp528
sg14
VSafe
p529
sg16
I00
sg17
g0
sg18
I00
sg19
VThis is the captain's safe, it is locked.  It can only be unlocked with a biometric scan or a special security chip.  You hope the captain hid the chip somewhere you can find it.
p530
sg21
g520
sVresult_text
p531
VYou unlock the safe with the security chip and open it. Inside are codes to transfer ship controls to the auxiliary bridge.  You will need these
p532
sg24
Vsecurity chip
p533
sg26
VThe captain's safe is open, but there is nothing else useful inside
p534
sg28
Vcaptain's cabin
p535
sg30
Vauxiliary codes
p536
sg32
I00
sg33
Vfeature
p537
sbsVcargo deck
p538
g2
(g68
g4
Ntp539
Rp540
(dp541
g21
g538
sg72
(lp542
sg74
(lp543
g502
aVhibernation pod
p544
asg12
(lp545
sg79
(dp546
Vwest
p547
Varmory
p548
ssg17
g0
sg14
VCargo Deck\u000aWest:Armory
p549
sg86
I00
sg33
Vroom
p550
sg19
S'You are in the cargo deck.  There are boxes upon boxes of supplies.  You will need to use the manifest terminal to find what you are looking for.\n\nYou see the manifest terminal\n\nTo the West is the Armory'
p551
sg89
(lp552
Vpackages
p553
aVmanifest
p554
asbsVshuttle bay
p555
g2
(g68
g4
Ntp556
Rp557
(dp558
g21
g555
sg72
(lp559
sg74
(lp560
g511
asg12
(lp561
sg79
(dp562
Vwest
p563
Vtransporter room
p564
sVeast
p565
Varmory
p566
sVnorth
p567
Velevator level 3
p568
sVsouth
p569
Vengineering access tube
p570
ssg17
g0
sg14
VThe Shuttle Bay.\u000aNorth:Elevator Level 3\u000aEast:Armory\u000aSouth:Engineering Access Tube\u000aWest:Transporter Room
p571
sg86
I00
sg33
Vroom
p572
sg19
VYou are in the Shuttle Bay. Reminds me of something...\u000aTo the North is the Elevator.\u000aTo the East is the Armory (GUNZ!)\u000aIf you look South, there's an Engineering Access Tube.\u000aAnd if you look West, there's a Transporter Room.
p573
sg89
(lp574
sbsg91
g2
(g3
g4
Ntp575
Rp576
(dp577
g26
g127
sg21
g91
sg24
(lp578
sg8
(lp579
sg12
(lp580
sg30
Nsg16
I00
sg28
Vmess hall
p581
sg17
g0
sg14
VThese leftovers really smell.
p582
sg18
I00
sg32
I00
sg33
Vfeature
p583
sg19
VYou take a whiff of the Leftovers and almost faint. They were really bad.
p584
sbsVtransporter room
p585
g2
(g68
g4
Ntp586
Rp587
(dp588
g21
g585
sg72
(lp589
sg74
(lp590
sg12
(lp591
sg79
(dp592
Veast
p593
Vshuttle bay
p594
ssg17
g0
sg14
S"You begrudgingly re-enter the Transporter Room. But why? The Transporter doesn't work. Did you like the Comic that much?\n\nIf you want to get out, to the East is the Shuttle Bay."
p595
sg86
I00
sg33
Vroom
p596
sg19
S"You figure that the Transporter Room will be your final escape. You notice the classic Transporter that you've seen on television here. Also there's a Comic on at the very corner of this room. Maybe something in that will cheer you up?\n\nTo get out of here, to the East is the Shuttle Bay."
p597
sg89
(lp598
g491
aVtransporter
p599
asbsg122
g2
(g3
g4
Ntp600
Rp601
(dp602
g26
g127
sg21
g122
sg24
(lp603
sg8
(lp604
sg12
(lp605
sg30
Nsg16
I00
sg28
Vbridge
p606
sg17
g0
sg14
VNothing new on the notepad.
p607
sg18
I00
sg32
I00
sg33
Vfeature
p608
sg19
VYou look at the notepad, and it has three names on it: Robert, Brent, and James.
p609
sbsVengineering core
p610
g2
(g68
g4
Ntp611
Rp612
(dp613
g21
g610
sg72
(lp614
sg74
(lp615
Vreactor fuel
p616
asg12
(lp617
sg79
(dp618
Vwest
p619
Vmain engineering
p620
ssg17
g0
sg14
Vengineering_core
p621
sg86
I00
sg33
Vroom
p622
sg19
VIt's really hot here in the Engineering Core.\u000aIf you want to escape the heat, the only place you can go is West to Main Engineering.
p623
sg89
(lp624
sbsg482
g2
(g3
g4
Ntp625
Rp626
(dp627
g26
g127
sg21
g482
sg24
(lp628
sg8
(lp629
sg12
(lp630
sg30
Nsg16
I00
sg28
Varmory
p631
sg17
g0
sg14
VYea, do not shot yourself.
p632
sg18
I00
sg32
I00
sg33
Vfeature
p633
sg19
VThe pistol instructions say to not shoot yourself.
p634
sbsVsilver medallion
p635
g2
(g94
g4
Ntp636
Rp637
(dp638
g98
I00
sg21
g635
sg12
(lp639
sg16
I00
sg28
Vforward observation
p640
sg17
g0
sg14
VSilver medallion.
p641
sg18
I00
sg32
I00
sg33
Vitem
p642
sg19
VThis is a silver medallion.  It has the inscription: 'haec vincere debes'
p643
sbsg286
g2
(g94
g4
Ntp644
Rp645
(dp646
g98
Vtrue
p647
sg21
g286
sg12
(lp648
sg16
I01
sg28
Vmedical bay
p649
sg17
g0
sg14
VRestored Vacsuit.
p650
sg18
I00
sg32
I00
sg33
Vitem
p651
sg19
VThis is a VacSuit that can protect you from the harsh environment of space.  It is fully intact with a full battery and full oxygen supply
p652
sbsg235
g2
(g3
g4
Ntp653
Rp654
(dp655
g26
g127
sg21
g235
sg24
(lp656
sg8
(lp657
sg12
(lp658
sg30
Nsg16
I00
sg28
Vcrew quarters
p659
sg17
g0
sg14
VYou shouldn't look at this person's secrets...
p660
sg18
I00
sg32
I00
sg33
Vfeature
p661
sg19
VYou read the diary and, it contains a person's lifelong secrets.
p662
sbsVtobias
p663
g2
(cobjects.Player
Player
p664
g4
Ntp665
Rp666
(dp667
S'status'
p668
S'you are trying to win.'
p669
sg21
VTobias
p670
sg74
(lp671
sg12
(lp672
sg28
g116
sg17
g0
sg14
VYour name is Tobias. You are the player.
p673
sg18
I00
sg33
Vplayer
p674
sg19
VYour name is Tobias. You are a ruggedly handsome adventurer with a rucksack.  You are wearing khaki clothing.
p675
sbsVforward observation
p676
g2
(g68
g4
Ntp677
Rp678
(dp679
g21
g676
sg72
(lp680
sg74
(lp681
g343
ag635
asg12
(lp682
sg79
(dp683
Veast
p684
Vmedical bay
p685
ssg17
g0
sg14
S"Back into the Forward Observation Lounge you are. Were you really fascinated by this room? Did you make sure to get the Silver Medallion?\n\nIf you're done, to the East is the Medical Bay."
p686
sg86
I00
sg33
Vroom
p687
sg19
S"You enter the Forward Observation Lounge, this used to be a place to relax and view the stars while not on duty.\n\nThe room is only lit by emergency lights.  Power must have been cut off from all non-essential systems. As you look around the room, an entertainmet terminal\n\nand a Table of Notes catches your eye. There's also a Telescope near a window here. Lastly, your eyes gaze on the Silver Medallion.\n\nYou can go East to the Medical Bay."
p688
sg89
(lp689
g173
ag236
ag298
asbsg599
g2
(g3
g4
Ntp690
Rp691
(dp692
g26
g127
sg21
g599
sg24
(lp693
sg8
(lp694
sg12
(lp695
sg30
Nsg16
I00
sg28
Vtransporter room
p696
sg17
g0
sg14
VUseless Transporter...
p697
sg18
I00
sg32
I00
sg33
Vfeature
p698
sg19
VThe Transporter doesn't work because there's not enough power. And you realize you never even had training on how to use it.
p699
sbsVmain engineering
p700
g2
(g68
g4
Ntp701
Rp702
(dp703
g21
g700
sg72
(lp704
sg74
(lp705
sg12
(lp706
sg79
(dp707
Vwest
p708
Vauxiliary bridge
p709
sVeast
p710
Vengineering core
p711
sVnorth
p712
Vengineering access tube
p713
ssg17
g0
sg14
Vmain_engineering
p714
sg86
I00
sg33
Vroom
p715
sg19
VThis is Main Engineering! Tons of small tubes here!\u000a To the North is a room with one big tube, Engeering Access Tube.\u000aTo the West, there's something labeled the auxiliary bridge.\u000aTo the East, there's the Engineering Core (seems important?)
p716
sg89
(lp717
sbsg553
g2
(g3
g4
Ntp718
Rp719
(dp720
g26
g127
sg21
g553
sg24
(lp721
sg8
(lp722
sg12
(lp723
sg30
Nsg16
I00
sg28
Vcargo deck
p724
sg17
g0
sg14
VWho touched these disorganized packages?
p725
sg18
I00
sg32
I00
sg33
Vfeature
p726
sg19
VThese packages seem like something went through them. Did you do this?
p727
sbsg544
g2
(g94
g4
Ntp728
Rp729
(dp730
g98
I00
sg21
g544
sg12
(lp731
sg16
I00
sg28
Vcargo deck
p732
sg17
g0
sg14
VThis is a hibernation pod.
p733
sg18
I00
sg32
I00
sg33
Vitem
p734
sg19
VThis is a hibernation pod. There's tinting covered the window, so you can't really see what's inside. But it seems like it's fully operational.
p735
sbsg112
g2
(g94
g4
Ntp736
Rp737
(dp738
g98
I00
sg21
g112
sg12
(lp739
Vkey1
p740
asg16
I01
sg28
Vbridge
p741
sg17
g0
sg14
VThis is ElevatorKey1.
p742
sg18
I00
sg32
I00
sg33
Vitem
p743
sg19
VThis is ElevatorKey1. Maybe it'll have some use for you later.
p744
sbsg77
g2
(g94
g4
Ntp745
Rp746
(dp747
g98
I00
sg21
g77
sg12
(lp748
Vkey2
p749
asg16
I01
sg28
Vmess hall
p750
sg17
g0
sg14
VThis is ElevatorKey2.
p751
sg18
I00
sg32
I00
sg33
Vitem
p752
sg19
VThis is ElevatorKey2. You hope it'll work like ElevatorKey1?
p753
sbsg212
g2
(g3
g4
Ntp754
Rp755
(dp756
g26
g127
sg21
g212
sg24
(lp757
sg8
(lp758
sg12
(lp759
sg30
Nsg16
I00
sg28
Varboretum
p760
sg17
g0
sg14
VThose crops really smell.
p761
sg18
I00
sg32
I00
sg33
Vfeature
p762
sg19
VThese are crops that were growing on the ship. They seem to have all gone bad.
p763
sbsg297
g2
(g3
g4
Ntp764
Rp765
(dp766
g8
(lp767
Vuse
p768
aVfill
p769
aVrefill
p770
asg12
(lp771
sg14
Voxygen tank
p772
sg16
I00
sg17
g0
sg18
I00
sg19
VThis is an emergency oxygen tank.  In case of ship wide power failure a patient can still receieve oxygen
p773
sg21
g297
sVresult_text
p774
VYou manage to use the emergency oxygen tank to refill the Depleted VacSuit, now the VacSuit is restored and usable
p775
sg24
Vdepleted vacsuit
p776
sg26
VThis is the oxygen tank you used to refill the VacSuit
p777
sg28
Vmedical bay
p778
sg30
Vrestored vacsuit
p779
sg32
I00
sg33
Vfeature
p780
sbsg92
g2
(g3
g4
Ntp781
Rp782
(dp783
g26
g127
sg21
g92
sg24
(lp784
sg8
(lp785
sg12
(lp786
sg30
Nsg16
I00
sg28
Vmess hall
p787
sg17
g0
sg14
VThere must be some sort of metal involved...
p788
sg18
I00
sg32
I00
sg33
Vfeature
p789
sg19
VYou approach the Dying Man and makes a very strange gesture: He acts like he has won the Olympics. Weird! There must be some sort of metal involved...
p790
sbsg554
g2
(g3
g4
Ntp791
Rp792
(dp793
g26
g127
sg21
g554
sg24
(lp794
sg8
(lp795
sg12
(lp796
sg30
Nsg16
I00
sg28
Vcargo deck
p797
sg17
g0
sg14
VThe hint was to...
p798
sg18
I00
sg32
I00
sg33
Vfeature
p799
sg19
VThe manifest says INCLUDE HINT TO CAME HERE
p800
sbsVcaptain's cabin
p801
g2
(g68
g4
Ntp802
Rp803
(dp804
g21
g801
sg72
(lp805
sg74
(lp806
g429
aVmodel ship
p807
asg12
(lp808
sg79
(dp809
Vsouth
p810
Vcrew quarters
p811
ssg17
g0
sg14
S"You return to the Captain's Cabin to see if you can find inspiration from something in here. Maybe it's the Painting? or is it the Radio? Or the Model Ship?\n\nWhen you're done, to the South is the Crew Quarters."
p812
sg86
I00
sg33
Vroom
p813
sg19
S"Like a boss, you stride into the Captain's Cabin. There's a Model Ship on the desk, who built that?\n\nOn the walls, there's a Painting. Also, strangely, there's a light buzz coming from a Radio.\n\nYou see a safe on the wall.\n\nWhen you're done with this room, you can go South to the Crew Quarters."
p814
sg89
(lp815
g520
aVradio
p816
aVpainting
p817
asbsg342
g2
(g3
g4
Ntp818
Rp819
(dp820
g26
g127
sg21
g342
sg24
(lp821
sg8
(lp822
sg12
(lp823
sg30
Nsg16
I00
sg28
Vauxiliary bridge
p824
sg17
g0
sg14
VAlmost there...
p825
sg18
I00
sg32
I00
sg33
Vfeature
p826
sg19
VThe Superhint is that you need to get three Medallions and get to the Engineering Core.
p827
sbsg816
g2
(g3
g4
Ntp828
Rp829
(dp830
g26
g127
sg21
g816
sg24
(lp831
sg8
(lp832
sg12
(lp833
sg30
Nsg16
I00
sg28
Vcaptain's cabin
p834
sg17
g0
sg14
VDanger! Danger! Danger!.
p835
sg18
I00
sg32
I00
sg33
Vfeature
p836
sg19
VYou crank up the volume on the Radio. It blares out Danger! Danger! Danger! Why is it so serious?
p837
sbsg465
g2
(g3
g4
Ntp838
Rp839
(dp840
g8
(lp841
Vuse
p842
asg12
(lp843
sg14
VKeyhole1.
p844
sg16
I00
sg17
g0
sg18
I00
sg19
VThis is a keyhole1 that might work with a certain elevatorkey?
p845
sg21
g465
sVresult_text
p846
VYou have successfully unlocked the next level on this elevator!
p847
sg24
(lp848
Velevatorkey1
p849
asg26
VKeyhole1 has been unlocked!
p850
sg28
Velevator level 1
p851
sg30
Nsg32
I00
sg33
Vfeature
p852
sbsg817
g2
(g3
g4
Ntp853
Rp854
(dp855
g26
g127
sg21
g817
sg24
(lp856
sg8
(lp857
sg12
(lp858
sg30
Nsg16
I00
sg28
Vcaptain's cabin
p859
sg17
g0
sg14
VMmmm...cereal.
p860
sg18
I00
sg32
I00
sg33
Vfeature
p861
sg19
VYou check out the painting, and it's of Captain Crunch?! When was the last time you had that?
p862
sbsg172
g2
(g3
g4
Ntp863
Rp864
(dp865
g26
g127
sg21
g172
sg24
(lp866
sg8
(lp867
sg12
(lp868
sg30
Nsg16
I00
sg28
Velevator level 3
p869
sg17
g0
sg14
S'\tElevator 1 - Bridge \n\tElevator 2 - Crew Quarters \n\tElevator 3 - Shuttle Bay'
p870
sg18
I00
sg32
I00
sg33
Vfeature
p871
sg19
S'You look at the directory and it says: \n\tElevator 1 - Bridge \n\tElevator 2 - Crew Quarters \n\tElevator 3 - Shuttle Bay'
p872
sbsg616
g2
(g94
g4
Ntp873
Rp874
(dp875
g98
I00
sg21
g616
sg12
(lp876
sg16
I00
sg28
Vengineering core
p877
sg17
g0
sg14
VThis is a container of reactor fuel.
p878
sg18
I00
sg32
I00
sg33
Vitem
p879
sg19
VThis is a container of reactor fuel. This is in very stable form that makes it easy to transport. You can probably use it to power something.
p880
sbsg807
g2
(g94
g4
Ntp881
Rp882
(dp883
g98
I00
sg21
g807
sg12
(lp884
sg16
I00
sg28
Vcaptain's cabin
p885
sg17
g0
sg14
VThis is a model of the ship you're on.
p886
sg18
I00
sg32
I00
sg33
Vitem
p887
sg19
VThis is a model of the ship (model ship) you're on. It must have been the captain's. It seems like a really good model of you're ship.
p888
sbs.