(dp0
Vbridge
p1
ccopy_reg
_reconstructor
p2
(c__main__
Room
p3
c__builtin__
object
p4
Ntp5
Rp6
(dp7
Vname
p8
g1
sS'visited'
p9
I01
sVshort_description
p10
VThe starship's bridge
p11
sS'items'
p12
(lp13
sVtype
p14
Vroom
p15
sVlong_description
p16
VYou are in a room on what appear to be a starship...
p17
sbsVname here
p18
g2
(c__main__
Player
p19
g4
Ntp20
Rp21
(dp22
Vname
p23
g18
sS'seen'
p24
I01
sVshort_description
p25
VYour name is. You are the player.
p26
sg12
(lp27
sVtype
p28
Vplayer
p29
sVlong_description
p30
VYour name is . You are a ruggedly handsome adventurer with a rucksack.  You are wearing khaki clothing.
p31
sbsVelevator
p32
g2
(g3
g4
Ntp33
Rp34
(dp35
Vname
p36
g32
sg9
I01
sVshort_description
p37
VThe bridge elevator.
p38
sg12
(lp39
sVtype
p40
Vroom
p41
sVlong_description
p42
VYou are in the bridge elevator.
p43
sbs.