(dp0
Vbridge
p1
ccopy_reg
_reconstructor
p2
(cour_objects
Room
p3
c__builtin__
object
p4
Ntp5
Rp6
(dp7
Vname
p8
g1
sS'items'
p9
(lp10
Vbridge button
p11
asS'adjacent_rooms'
p12
(dp13
Vsouth
p14
Velevator
p15
ssS'otherObjects'
p16
g0
sVshort_description
p17
VBridge\u000aSouth:Elevator
p18
sS'visited'
p19
I01
sVtype
p20
Vroom
p21
sVlong_description
p22
S'You are in a room which appears to be the bridge of a starship.  No one else is present. Large video screens cover the walls and show a spectacular view of a two suns and several planets.  \n\nThere are numerous consoles with various controls and an empty chair in front of each.  To the south appears to be the entrance to an elevator.  In front of you is a console with a red blinking button labeled "self destruct".\n\nAn alarm is going off and a muted voice is counting down...'
p23
sbsVauxiliary bridge
p24
g2
(g3
g4
Ntp25
Rp26
(dp27
Vname
p28
g24
sg9
(lp29
sg12
(dp30
Veast
p31
Vmain engineering
p32
ssg16
g0
sVshort_description
p33
VAuxiliary Bride\u000aEast:Main Engineering
p34
sg19
I00
sVtype
p35
Vroom
p36
sVlong_description
p37
VWelcome to the Auxiliary Bridge. This bridge is a lot smaller than that other one...\u000aTo the East there's Main Engineering.
p38
sbsVcargo deck
p39
g2
(g3
g4
Ntp40
Rp41
(dp42
Vname
p43
g39
sg9
(lp44
sg12
(dp45
Vwest
p46
Varmory
p47
ssg16
g0
sVshort_description
p48
VCargo Deck\u000aWest:Armory
p49
sg19
I00
sVtype
p50
Vroom
p51
sVlong_description
p52
VYou are in the cargo deck long.\u000aTo the West is the Armory (I wonder what's there...
p53
sbsVforward observation
p54
g2
(g3
g4
Ntp55
Rp56
(dp57
Vname
p58
g54
sg9
(lp59
sg12
(dp60
Veast
p61
Vmedical bay
p62
ssg16
g0
sVshort_description
p63
VForward Observation. Exit: East: Medical Bay
p64
sg19
I00
sVtype
p65
Vroom
p66
sVlong_description
p67
VYou are in forward observation long... Exit: East: Medical Bay
p68
sbsVshuttle bay
p69
g2
(g3
g4
Ntp70
Rp71
(dp72
Vname
p73
g69
sg9
(lp74
sg12
(dp75
Vwest
p76
Vtransporter room
p77
sVeast
p78
Varmory
p79
sVsouth
p80
Vengineering access tube
p81
ssg16
g0
sVshort_description
p82
VThe Shuttle Bay.\u000aNorth:Elevator\u000aEast:Armory\u000aSouth:Engineering Access Tube\u000aWest:Transporter Room
p83
sg19
I00
sVtype
p84
Vroom
p85
sVlong_description
p86
VYou are in the Shuttle Bay. Reminds me of something...\u000aTo the North is the Elevator.\u000aTo the East is the Armory (GUNZ!)\u000aIf you look South, there's an Engineering Access Tube.\u000aAnd if you look West, there's a Transporter Room.
p87
sbsVengineering access tube
p88
g2
(g3
g4
Ntp89
Rp90
(dp91
Vname
p92
g88
sg9
(lp93
sg12
(dp94
Vwest
p95
Velevator
p96
sVnorth
p97
Vshuttle bay
p98
sVsouth
p99
Vmain engineering
p100
ssg16
g0
sVshort_description
p101
Vengineering_access_tube
p102
sg19
I00
sVtype
p103
Vroom
p104
sVlong_description
p105
VYour are in the Engineering Access Tube. It's a really long tube.\u000aTo the North is the Shuttle Bay.\u000ato The South is a room called Main Engineering.\u000aTo the West, there's an entrance to the Elevator.\u000aLot's of choices!
p106
sbsVtransporter room
p107
g2
(g3
g4
Ntp108
Rp109
(dp110
Vname
p111
g107
sg9
(lp112
sg12
(dp113
Veast
p114
Vshuttle bay
p115
ssg16
g0
sVshort_description
p116
Vj_transporter_room
p117
sg19
I00
sVtype
p118
Vroom
p119
sVlong_description
p120
VThere's a transport pod here! Maybe it'll work?\u000aTo the East there's the Shuttle bay.
p121
sbsVname here
p122
g2
(cour_objects
Player
p123
g4
Ntp124
Rp125
(dp126
Vname
p127
g122
sg9
(lp128
sS'location'
p129
Vbridge
p130
sg16
g0
sVshort_description
p131
VYour name is. You are the player.
p132
sS'seen'
p133
I00
sVtype
p134
Vplayer
p135
sVlong_description
p136
VYour name is . You are a ruggedly handsome adventurer with a rucksack.  You are wearing khaki clothing.
p137
sbsVengineering core
p138
g2
(g3
g4
Ntp139
Rp140
(dp141
Vname
p142
g138
sg9
(lp143
sg12
(dp144
Vwest
p145
Vmain engineering
p146
ssg16
g0
sVshort_description
p147
Vengineering_core
p148
sg19
I00
sVtype
p149
Vroom
p150
sVlong_description
p151
VIt's really hot here in the Engineering Core.\u000aIf you want to escape the heat, the only place you can go is West to Main Engineering.
p152
sbsVarmory
p153
g2
(g3
g4
Ntp154
Rp155
(dp156
Vname
p157
g153
sg9
(lp158
sg12
(dp159
Vwest
p160
Vshuttle bay
p161
sVeast
p162
Vcargo deck
p163
ssg16
g0
sVshort_description
p164
VArmory\u000aEast:Cargo Deck\u000aWest:Shuttle Bay
p165
sg19
I00
sVtype
p166
Vroom
p167
sVlong_description
p168
VThis is the Armory. There don't seem be a lot of weapons left! \u000aTo the East is the Cargo Deck. \u000aTo the West there's the Shuttle Bay.
p169
sbsVversion
p170
g2
(cour_objects
Version
p171
g4
Ntp172
Rp173
(dp174
S'version'
p175
F1.0
sVname
p176
g170
sg16
g0
sVshort_description
p177
Vversion
p178
sVtype
p179
Vversion
p180
sVlong_description
p181
Vversion
p182
sbsVarboretum
p183
g2
(g3
g4
Ntp184
Rp185
(dp186
Vname
p187
g183
sg9
(lp188
sg12
(dp189
Vwest
p190
Vmess hall
p191
ssg16
g0
sVshort_description
p192
VArboretum\u000aWest:Mess Hall
p193
sg19
I00
sVtype
p194
Vroom
p195
sVlong_description
p196
VYou are in the arboretum room. Exit: West: Mess Hall
p197
sbsVelevator
p198
g2
(g3
g4
Ntp199
Rp200
(dp201
Vname
p202
g198
sg9
(lp203
sg12
(dp204
Vwest
p205
Vbridge
p206
sVeast
p207
Vcrew quarters
p208
sVSouth
p209
VShuttle Bay
p210
ssg16
g0
sVshort_description
p211
VThe bridge elevator.\u000aWest: Bridge\u000aEast: Crew Quarters\u000aSouth:shuttle bay
p212
sg19
I00
sVtype
p213
Vroom
p214
sVlong_description
p215
VYou are in the bridge elevator.\u000aLooking East you see the Crew Quarters\u000aWhen you look West, you see the Bridge.\u000aAnd looking South there's a Shuttle Bay.
p216
sbsVcaptain's cabin
p217
g2
(g3
g4
Ntp218
Rp219
(dp220
Vname
p221
g217
sg9
(lp222
sg12
(dp223
Vsouth
p224
Vcrew quarters
p225
ssg16
g0
sVshort_description
p226
VThe Captain's Cabin.\u000aSouth:Crew Quarters
p227
sg19
I00
sVtype
p228
Vroom
p229
sVlong_description
p230
VYou are in the Captain's Cabin. I wonder where that guy is...\u000aTo the South is the Crew Quarters (and maybe bunkbeds?)
p231
sbsVcrew quarters
p232
g2
(g3
g4
Ntp233
Rp234
(dp235
Vname
p236
g232
sg9
(lp237
sg12
(dp238
Vwest
p239
Velevator
p240
ssg16
g0
sVshort_description
p241
VCrew Quarters.\u000aNorth:Captain's Room\u000aEast:Mess Hall\u000aSouth:Medical Bay\u000aWest: Elevator
p242
sg19
I00
sVtype
p243
Vroom
p244
sVlong_description
p245
VYou are in the Crew Quarters long.\u000aTo the East there's a Mess Hall.\u000aTo the South there's a Medical Bay (and goodies).\u000aTo the West there's the Elevator.
p246
sbsg11
g2
(cour_objects
Item
p247
g4
Ntp248
Rp249
(dp250
Vname
p251
g11
sg16
g0
sVshort_description
p252
VThis is a red button labeled 'self destruct'.
p253
sg133
I00
sVtype
p254
Vitem
p255
sVlong_description
p256
VThis is a red button labeled 'self destruct' which appears to be the cause of the alarm going off in the room.
p257
sg129
Vbridge
p258
sbsVmain engineering
p259
g2
(g3
g4
Ntp260
Rp261
(dp262
Vname
p263
g259
sg9
(lp264
sg12
(dp265
Vwest
p266
Vauxiliary bridge
p267
sVeast
p268
Vengineering core
p269
sVnorth
p270
Vengineering access tube
p271
ssg16
g0
sVshort_description
p272
Vmain_engineering
p273
sg19
I00
sVtype
p274
Vroom
p275
sVlong_description
p276
VThis is Main Engineering! Tons of small tubes here!\u000a To the North is a room with one big tube, Engeering Access Tube.\u000aTo the West, there's something labeled the auxiliary bridge.\u000aTo the East, there's the Engineering Core (seems important?)
p277
sbsVmedical bay
p278
g2
(g3
g4
Ntp279
Rp280
(dp281
Vname
p282
g278
sg9
(lp283
sg12
(dp284
Vwest
p285
Vforward observation
p286
sVnorth
p287
Vcrew quarters
p288
ssg16
g0
sVshort_description
p289
VMedical Bay. Exits: West: Forward Observation, North: Crew Quarters
p290
sg19
I00
sVtype
p291
Vroom
p292
sVlong_description
p293
VYou are in medical bay long... Exits: West: Forward Observation, North: Crew Quarters
p294
sbs.